; Function Attrs: mustprogress uwtable
define noundef i32 @_ZN3zmq16tipc_connecter_t7connectEv(ptr nocapture noundef nonnull align 8 dereferenceable(1544) %this) local_unnamed_addr #0 align 2 {
entry:
  %err = alloca i32, align 4
  %len = alloca i32, align 4
  store i32 0, ptr %err, align 4
  store i32 4, ptr %len, align 4
  %_s = getelementptr inbounds i8, ptr %this, i64 1472
  %0 = load i32, ptr %_s, align 8
  %call = call i32 @getsockopt(i32 noundef %0, i32 noundef 1, i32 noundef 4, ptr noundef nonnull %err, ptr noundef nonnull %len) #10
  %cmp = icmp eq i32 %call, -1
  br i1 %cmp, label %if.then, label %if.endthread-pre-split

if.then:                                          ; preds = %entry
  %call2 = tail call ptr @__errno_location() #12
  %1 = load i32, ptr %call2, align 4
  store i32 %1, ptr %err, align 4
  br label %if.end

if.endthread-pre-split:                           ; preds = %entry
  %.pr = load i32, ptr %err, align 4
  br label %if.end

if.end:                                           ; preds = %if.endthread-pre-split, %if.then
  %2 = phi i32 [ %.pr, %if.endthread-pre-split ], [ %1, %if.then ]
  %cmp3.not = icmp eq i32 %2, 0
  br i1 %cmp3.not, label %if.end27, label %if.then4

if.then4:                                         ; preds = %if.end
  %call5 = tail call ptr @__errno_location() #12
  store i32 %2, ptr %call5, align 4
  %switch.tableidx = add i32 %2, -100
  %3 = icmp ult i32 %switch.tableidx, 14
  br i1 %3, label %switch.hole_check, label %lor.rhs

lor.rhs:                                          ; preds = %switch.hole_check, %if.then4
  %call23 = call ptr @strerror(i32 noundef %2) #10
  %4 = load ptr, ptr @stderr, align 8
  %call24 = call i32 (ptr, ptr, ...) @fprintf(ptr noundef %4, ptr noundef nonnull @.str.5, ptr noundef %call23, ptr noundef nonnull @.str.3, i32 noundef 139) #11
  %5 = load ptr, ptr @stderr, align 8
  %call25 = call i32 @fflush(ptr noundef %5)
  call void @_ZN3zmq9zmq_abortEPKc(ptr noundef %call23)
  br label %return

if.end27:                                         ; preds = %if.end
  %6 = load i32, ptr %_s, align 8
  store i32 -1, ptr %_s, align 8
  br label %return

switch.hole_check:                                ; preds = %if.then4
  %switch.maskindex = trunc i32 %switch.tableidx to i16
  %switch.shifted = lshr i16 11283, %switch.maskindex
  %7 = and i16 %switch.shifted, 1
  %switch.lobit.not = icmp eq i16 %7, 0
  br i1 %switch.lobit.not, label %lor.rhs, label %return

return:                                           ; preds = %switch.hole_check, %lor.rhs, %if.end27
  %retval.0 = phi i32 [ %6, %if.end27 ], [ -1, %lor.rhs ], [ -1, %switch.hole_check ]
  ret i32 %retval.0
}